target datalayout = "e-m:e-p270:32:32-p271:32:32-p272:64:64-i64:64-i128:128-f80:128-n8:16:32:64-S128"
target triple = "x86_64-pc-linux-gnu"

%struct.expert_field = type { i32, i32 }
%struct._e_guid_t = type { i32, i16, i16, [8 x i8] }
%struct._value_string = type { i32, ptr }
%struct._packet_info = type { ptr, ptr, i32, i32, %struct.nstime_t, %struct.nstime_t, %struct.nstime_t, i8, ptr, ptr, ptr, ptr, %struct._address, %struct._address, %struct._address, %struct._address, %struct._address, %struct._address, i32, ptr, i8, [3 x i8], %struct.anon, i32, i32, i32, i32, ptr, i8, ptr, ptr, i16, i16, i32, i32, i16, i32, i32, ptr, ptr, ptr, i8, i8, i16, i16, i16, i32, i16, i16, ptr, ptr, ptr, ptr, ptr, i32, i32 }
%struct.nstime_t = type { i64, i32 }
%struct._address = type { i32, i32, ptr, ptr }
%struct.anon = type { i8, [3 x i8] }
%struct._GList = type { ptr, ptr, ptr }
%struct.cba_ldev_s = type { ptr, ptr, ptr, ptr, ptr, ptr, ptr, i32, ptr }
%struct.cba_frame_s = type { ptr, ptr, ptr, i32, i32, i32, i32, i32, i16, [6 x i8], i16, i32, i32, i16, i16, i16 }
%struct._dcerpc_info = type { ptr, i32, i64, i8, i8, i8, i32, i32, i32, i32, i32, i32, i32, i32, ptr, ptr, ptr, ptr, %struct.anon.0 }
%struct.anon.0 = type { i8, ptr, ptr, ptr, i8 }
%struct._dcerpc_call_value = type { %struct._e_guid_t, i16, %struct._e_guid_t, i16, i32, %struct.nstime_t, i32, i32, ptr, ptr, ptr, i32 }
%struct._proto_node = type { ptr, ptr, ptr, ptr, ptr, ptr, ptr }
%struct.field_info = type { ptr, i32, i32, i32, i32, i32, i32, ptr, ptr, ptr, i32, i32 }
%struct.server_disconnectme_call_s = type { ptr, ptr }

@hf_cba_acco_srt_call = internal global i32 0, align 4
@ei_cba_acco_disconnect = internal global %struct.expert_field zeroinitializer, align 4
@ei_cba_acco_connect = internal global %struct.expert_field zeroinitializer, align 4
@proto_ICBAAccoMgt = internal global i32 0, align 4
@dcom_hresult_vals = external constant [0 x %struct._value_string], align 8
@.str.259 = private unnamed_addr constant [17 x i8] c"Unknown (0x%08x)\00", align 1
@.str.261 = private unnamed_addr constant [7 x i8] c" -> %s\00", align 1
@.str.300 = private unnamed_addr constant [48 x i8] c"cba_packet_in_range#%u: packet_connect not set?\00", align 1
@.str.341 = private unnamed_addr constant [63 x i8] c"cba_frame_disconnectme#%u: frame already disconnectme'd in #%u\00", align 1

; Function Attrs: null_pointer_is_valid sspstrong uwtable
define internal zeroext i1 @cba_packet_in_range(ptr noundef %0, i32 noundef %1, i32 noundef %2, i32 noundef %3) #0 {
  %5 = alloca i1, align 1
  %6 = alloca ptr, align 8
  %7 = alloca i32, align 4
  %8 = alloca i32, align 4
  %9 = alloca i32, align 4
  store ptr %0, ptr %6, align 8
  store i32 %1, ptr %7, align 4
  store i32 %2, ptr %8, align 4
  store i32 %3, ptr %9, align 4
  %10 = load i32, ptr %7, align 4
  %11 = icmp eq i32 %10, 0
  br i1 %11, label %12, label %18

12:                                               ; preds = %4
  %13 = load ptr, ptr %6, align 8
  %14 = load ptr, ptr %6, align 8
  %15 = getelementptr inbounds nuw %struct._packet_info, ptr %14, i32 0, i32 3
  %16 = load i32, ptr %15, align 4
  %17 = call ptr (ptr, ptr, ptr, ptr, ...) @expert_add_info_format(ptr noundef %13, ptr noundef null, ptr noundef @ei_cba_acco_connect, ptr noundef @.str.300, i32 noundef %16)
  br label %18

18:                                               ; preds = %12, %4
  %19 = load i32, ptr %7, align 4
  %20 = icmp eq i32 %19, 0
  br i1 %20, label %27, label %21

21:                                               ; preds = %18
  %22 = load ptr, ptr %6, align 8
  %23 = getelementptr inbounds nuw %struct._packet_info, ptr %22, i32 0, i32 3
  %24 = load i32, ptr %23, align 4
  %25 = load i32, ptr %7, align 4
  %26 = icmp ult i32 %24, %25
  br i1 %26, label %27, label %28

27:                                               ; preds = %21, %18
  store i1 false, ptr %5, align 1
  br label %49

28:                                               ; preds = %21
  %29 = load i32, ptr %8, align 4
  %30 = icmp ne i32 %29, 0
  br i1 %30, label %31, label %38

31:                                               ; preds = %28
  %32 = load ptr, ptr %6, align 8
  %33 = getelementptr inbounds nuw %struct._packet_info, ptr %32, i32 0, i32 3
  %34 = load i32, ptr %33, align 4
  %35 = load i32, ptr %8, align 4
  %36 = icmp ugt i32 %34, %35
  br i1 %36, label %37, label %38

37:                                               ; preds = %31
  store i1 false, ptr %5, align 1
  br label %49

38:                                               ; preds = %31, %28
  %39 = load i32, ptr %9, align 4
  %40 = icmp ne i32 %39, 0
  br i1 %40, label %41, label %48

41:                                               ; preds = %38
  %42 = load ptr, ptr %6, align 8
  %43 = getelementptr inbounds nuw %struct._packet_info, ptr %42, i32 0, i32 3
  %44 = load i32, ptr %43, align 4
  %45 = load i32, ptr %9, align 4
  %46 = icmp ugt i32 %44, %45
  br i1 %46, label %47, label %48

47:                                               ; preds = %41
  store i1 false, ptr %5, align 1
  br label %49

48:                                               ; preds = %41, %38
  store i1 true, ptr %5, align 1
  br label %49

49:                                               ; preds = %48, %47, %37, %27
  %50 = load i1, ptr %5, align 1
  ret i1 %50
}

; Function Attrs: null_pointer_is_valid sspstrong uwtable
define internal void @cba_frame_disconnectme(ptr noundef %0, ptr noundef %1, ptr noundef %2, ptr noundef %3, ptr noundef %4) #0 {
  %6 = alloca ptr, align 8
  %7 = alloca ptr, align 8
  %8 = alloca ptr, align 8
  %9 = alloca ptr, align 8
  %10 = alloca ptr, align 8
  %11 = alloca ptr, align 8
  %12 = alloca ptr, align 8
  store ptr %0, ptr %6, align 8
  store ptr %1, ptr %7, align 8
  store ptr %2, ptr %8, align 8
  store ptr %3, ptr %9, align 8
  store ptr %4, ptr %10, align 8
  call void @llvm.lifetime.start.p0(i64 8, ptr %11) #12
  call void @llvm.lifetime.start.p0(i64 8, ptr %12) #12
  %13 = load ptr, ptr %9, align 8
  %14 = getelementptr inbounds nuw %struct.cba_ldev_s, ptr %13, i32 0, i32 1
  %15 = load ptr, ptr %14, align 8
  store ptr %15, ptr %11, align 8
  br label %16

16:                                               ; preds = %83, %5
  %17 = load ptr, ptr %11, align 8
  %18 = icmp ne ptr %17, null
  br i1 %18, label %19, label %85

19:                                               ; preds = %16
  %20 = load ptr, ptr %11, align 8
  %21 = getelementptr inbounds nuw %struct._GList, ptr %20, i32 0, i32 0
  %22 = load ptr, ptr %21, align 8
  store ptr %22, ptr %12, align 8
  %23 = load ptr, ptr %12, align 8
  %24 = getelementptr inbounds nuw %struct.cba_frame_s, ptr %23, i32 0, i32 1
  %25 = load ptr, ptr %24, align 8
  %26 = load ptr, ptr %10, align 8
  %27 = icmp eq ptr %25, %26
  br i1 %27, label %28, label %74

28:                                               ; preds = %19
  %29 = load ptr, ptr %7, align 8
  %30 = load ptr, ptr %12, align 8
  %31 = getelementptr inbounds nuw %struct.cba_frame_s, ptr %30, i32 0, i32 3
  %32 = load i32, ptr %31, align 8
  %33 = load ptr, ptr %12, align 8
  %34 = getelementptr inbounds nuw %struct.cba_frame_s, ptr %33, i32 0, i32 4
  %35 = load i32, ptr %34, align 4
  %36 = load ptr, ptr %12, align 8
  %37 = getelementptr inbounds nuw %struct.cba_frame_s, ptr %36, i32 0, i32 5
  %38 = load i32, ptr %37, align 8
  %39 = call zeroext i1 @cba_packet_in_range(ptr noundef %29, i32 noundef %32, i32 noundef %35, i32 noundef %38)
  br i1 %39, label %40, label %74

40:                                               ; preds = %28
  %41 = load ptr, ptr %6, align 8
  %42 = load ptr, ptr %7, align 8
  %43 = load ptr, ptr %8, align 8
  %44 = load ptr, ptr %12, align 8
  call void @cba_frame_info(ptr noundef %41, ptr noundef %42, ptr noundef %43, ptr noundef %44)
  %45 = load ptr, ptr %12, align 8
  %46 = getelementptr inbounds nuw %struct.cba_frame_s, ptr %45, i32 0, i32 5
  %47 = load i32, ptr %46, align 8
  %48 = icmp eq i32 %47, 0
  br i1 %48, label %49, label %55

49:                                               ; preds = %40
  %50 = load ptr, ptr %7, align 8
  %51 = getelementptr inbounds nuw %struct._packet_info, ptr %50, i32 0, i32 3
  %52 = load i32, ptr %51, align 4
  %53 = load ptr, ptr %12, align 8
  %54 = getelementptr inbounds nuw %struct.cba_frame_s, ptr %53, i32 0, i32 5
  store i32 %52, ptr %54, align 8
  br label %55

55:                                               ; preds = %49, %40
  %56 = load ptr, ptr %12, align 8
  %57 = getelementptr inbounds nuw %struct.cba_frame_s, ptr %56, i32 0, i32 5
  %58 = load i32, ptr %57, align 8
  %59 = load ptr, ptr %7, align 8
  %60 = getelementptr inbounds nuw %struct._packet_info, ptr %59, i32 0, i32 3
  %61 = load i32, ptr %60, align 4
  %62 = icmp ne i32 %58, %61
  br i1 %62, label %63, label %73

63:                                               ; preds = %55
  %64 = load ptr, ptr %7, align 8
  %65 = load ptr, ptr %8, align 8
  %66 = load ptr, ptr %7, align 8
  %67 = getelementptr inbounds nuw %struct._packet_info, ptr %66, i32 0, i32 3
  %68 = load i32, ptr %67, align 4
  %69 = load ptr, ptr %12, align 8
  %70 = getelementptr inbounds nuw %struct.cba_frame_s, ptr %69, i32 0, i32 5
  %71 = load i32, ptr %70, align 8
  %72 = call ptr (ptr, ptr, ptr, ptr, ...) @expert_add_info_format(ptr noundef %64, ptr noundef %65, ptr noundef @ei_cba_acco_disconnect, ptr noundef @.str.341, i32 noundef %68, i32 noundef %71)
  br label %73

73:                                               ; preds = %63, %55
  br label %74

74:                                               ; preds = %73, %28, %19
  br label %75

75:                                               ; preds = %74
  %76 = load ptr, ptr %11, align 8
  %77 = icmp ne ptr %76, null
  br i1 %77, label %78, label %82

78:                                               ; preds = %75
  %79 = load ptr, ptr %11, align 8
  %80 = getelementptr inbounds nuw %struct._GList, ptr %79, i32 0, i32 1
  %81 = load ptr, ptr %80, align 8
  br label %83

82:                                               ; preds = %75
  br label %83

83:                                               ; preds = %82, %78
  %84 = phi ptr [ %81, %78 ], [ null, %82 ]
  store ptr %84, ptr %11, align 8
  br label %16, !llvm.loop !57

85:                                               ; preds = %16
  call void @llvm.lifetime.end.p0(i64 8, ptr %12) #12
  call void @llvm.lifetime.end.p0(i64 8, ptr %11) #12
  ret void
}

; Function Attrs: inlinehint nounwind null_pointer_is_valid sspstrong uwtable
define internal void @proto_item_set_generated(ptr noundef %0) #10 {
  %2 = alloca ptr, align 8
  store ptr %0, ptr %2, align 8
  %3 = load ptr, ptr %2, align 8
  %4 = icmp ne ptr %3, null
  br i1 %4, label %5, label %24

5:                                                ; preds = %1
  br label %6

6:                                                ; preds = %5
  %7 = load ptr, ptr %2, align 8
  %8 = getelementptr inbounds nuw %struct._proto_node, ptr %7, i32 0, i32 5
  %9 = load ptr, ptr %8, align 8
  %10 = icmp ne ptr %9, null
  br i1 %10, label %11, label %22

11:                                               ; preds = %6
  %12 = load ptr, ptr %2, align 8
  %13 = getelementptr inbounds nuw %struct._proto_node, ptr %12, i32 0, i32 5
  %14 = load ptr, ptr %13, align 8
  %15 = getelementptr inbounds nuw %struct.field_info, ptr %14, i32 0, i32 6
  %16 = load i32, ptr %15, align 4
  %17 = or i32 %16, 2
  %18 = load ptr, ptr %2, align 8
  %19 = getelementptr inbounds nuw %struct._proto_node, ptr %18, i32 0, i32 5
  %20 = load ptr, ptr %19, align 8
  %21 = getelementptr inbounds nuw %struct.field_info, ptr %20, i32 0, i32 6
  store i32 %17, ptr %21, align 4
  br label %22

22:                                               ; preds = %11, %6
  br label %23

23:                                               ; preds = %22
  br label %24

24:                                               ; preds = %23, %1
  ret void
}

; Function Attrs: null_pointer_is_valid sspstrong uwtable
define internal i32 @dissect_ICBAAccoServerSRT_DisconnectMe_resp(ptr noundef %0, i32 noundef %1, ptr noundef %2, ptr noundef %3, ptr noundef %4, ptr noundef %5) #0 {
  %7 = alloca ptr, align 8
  %8 = alloca i32, align 4
  %9 = alloca ptr, align 8
  %10 = alloca ptr, align 8
  %11 = alloca ptr, align 8
  %12 = alloca ptr, align 8
  %13 = alloca i32, align 4
  %14 = alloca ptr, align 8
  %15 = alloca ptr, align 8
  store ptr %0, ptr %7, align 8
  store i32 %1, ptr %8, align 4
  store ptr %2, ptr %9, align 8
  store ptr %3, ptr %10, align 8
  store ptr %4, ptr %11, align 8
  store ptr %5, ptr %12, align 8
  call void @llvm.lifetime.start.p0(i64 4, ptr %13) #12
  call void @llvm.lifetime.start.p0(i64 8, ptr %14) #12
  call void @llvm.lifetime.start.p0(i64 8, ptr %15) #12
  %16 = load ptr, ptr %7, align 8
  %17 = load i32, ptr %8, align 4
  %18 = load ptr, ptr %9, align 8
  %19 = load ptr, ptr %10, align 8
  %20 = load ptr, ptr %11, align 8
  %21 = load ptr, ptr %12, align 8
  %22 = call i32 @dissect_dcom_that(ptr noundef %16, i32 noundef %17, ptr noundef %18, ptr noundef %19, ptr noundef %20, ptr noundef %21)
  store i32 %22, ptr %8, align 4
  %23 = load ptr, ptr %10, align 8
  %24 = load i32, ptr @hf_cba_acco_srt_call, align 4
  %25 = load ptr, ptr %7, align 8
  %26 = load i32, ptr %8, align 4
  %27 = call ptr @proto_tree_add_boolean(ptr noundef %23, i32 noundef %24, ptr noundef %25, i32 noundef %26, i32 noundef 0, i64 noundef 0)
  store ptr %27, ptr %14, align 8
  %28 = load ptr, ptr %14, align 8
  call void @proto_item_set_generated(ptr noundef %28)
  %29 = load ptr, ptr %9, align 8
  %30 = getelementptr inbounds nuw %struct._packet_info, ptr %29, i32 0, i32 51
  %31 = load ptr, ptr %30, align 8
  %32 = load ptr, ptr %9, align 8
  %33 = load i32, ptr @proto_ICBAAccoMgt, align 4
  call void @p_add_proto_data(ptr noundef %31, ptr noundef %32, i32 noundef %33, i32 noundef 0, ptr noundef inttoptr (i64 3 to ptr))
  %34 = load ptr, ptr %7, align 8
  %35 = load i32, ptr %8, align 4
  %36 = load ptr, ptr %9, align 8
  %37 = load ptr, ptr %10, align 8
  %38 = load ptr, ptr %11, align 8
  %39 = load ptr, ptr %12, align 8
  %40 = call i32 @dissect_dcom_HRESULT(ptr noundef %34, i32 noundef %35, ptr noundef %36, ptr noundef %37, ptr noundef %38, ptr noundef %39, ptr noundef %13)
  store i32 %40, ptr %8, align 4
  %41 = load ptr, ptr %11, align 8
  %42 = getelementptr inbounds nuw %struct._dcerpc_info, ptr %41, i32 0, i32 14
  %43 = load ptr, ptr %42, align 8
  %44 = getelementptr inbounds nuw %struct._dcerpc_call_value, ptr %43, i32 0, i32 9
  %45 = load ptr, ptr %44, align 8
  store ptr %45, ptr %15, align 8
  %46 = load ptr, ptr %15, align 8
  %47 = icmp ne ptr %46, null
  br i1 %47, label %48, label %58

48:                                               ; preds = %6
  %49 = load ptr, ptr %7, align 8
  %50 = load ptr, ptr %9, align 8
  %51 = load ptr, ptr %10, align 8
  %52 = load ptr, ptr %15, align 8
  %53 = getelementptr inbounds nuw %struct.server_disconnectme_call_s, ptr %52, i32 0, i32 0
  %54 = load ptr, ptr %53, align 8
  %55 = load ptr, ptr %15, align 8
  %56 = getelementptr inbounds nuw %struct.server_disconnectme_call_s, ptr %55, i32 0, i32 1
  %57 = load ptr, ptr %56, align 8
  call void @cba_frame_disconnectme(ptr noundef %49, ptr noundef %50, ptr noundef %51, ptr noundef %54, ptr noundef %57)
  br label %58

58:                                               ; preds = %48, %6
  %59 = load ptr, ptr %9, align 8
  %60 = getelementptr inbounds nuw %struct._packet_info, ptr %59, i32 0, i32 1
  %61 = load ptr, ptr %60, align 8
  %62 = load i32, ptr %13, align 4
  %63 = call ptr @val_to_str(i32 noundef %62, ptr noundef @dcom_hresult_vals, ptr noundef @.str.259)
  call void (ptr, i32, ptr, ...) @col_append_fstr(ptr noundef %61, i32 noundef 25, ptr noundef @.str.261, ptr noundef %63)
  %64 = load i32, ptr %8, align 4
  call void @llvm.lifetime.end.p0(i64 8, ptr %15) #12
  call void @llvm.lifetime.end.p0(i64 8, ptr %14) #12
  call void @llvm.lifetime.end.p0(i64 4, ptr %13) #12
  ret i32 %64
}