; Function Attrs: null_pointer_is_valid sspstrong uwtable
define internal i32 @dissect_ICBAAccoServerSRT_DisconnectMe_resp(ptr noundef %0, i32 noundef %1, ptr noundef %2, ptr noundef %3, ptr noundef %4, ptr noundef %5) #0 {
  %7 = alloca i32, align 4
  call void @llvm.lifetime.start.p0(i64 4, ptr nonnull %7) #12
  %8 = tail call i32 @dissect_dcom_that(ptr noundef %0, i32 noundef %1, ptr noundef %2, ptr noundef %3, ptr noundef %4, ptr noundef %5)
  %9 = load i32, ptr @hf_cba_acco_srt_call, align 4
  %10 = tail call ptr @proto_tree_add_boolean(ptr noundef %3, i32 noundef %9, ptr noundef %0, i32 noundef %8, i32 noundef 0, i64 noundef 0)
  %.not.i = icmp eq ptr %10, null
  br i1 %.not.i, label %proto_item_set_generated.exit, label %11

11:                                               ; preds = %6
  %12 = getelementptr inbounds nuw i8, ptr %10, i64 40
  %13 = load ptr, ptr %12, align 8
  %.not5.i = icmp eq ptr %13, null
  br i1 %.not5.i, label %proto_item_set_generated.exit, label %14

14:                                               ; preds = %11
  %15 = getelementptr inbounds nuw i8, ptr %13, i64 28
  %16 = load i32, ptr %15, align 4
  %17 = or i32 %16, 2
  store i32 %17, ptr %15, align 4
  br label %proto_item_set_generated.exit

proto_item_set_generated.exit:                    ; preds = %6, %11, %14
  %18 = getelementptr inbounds nuw i8, ptr %2, i64 408
  %19 = load ptr, ptr %18, align 8
  %20 = load i32, ptr @proto_ICBAAccoMgt, align 4
  tail call void @p_add_proto_data(ptr noundef %19, ptr noundef %2, i32 noundef %20, i32 noundef 0, ptr noundef nonnull inttoptr (i64 3 to ptr))
  %21 = call i32 @dissect_dcom_HRESULT(ptr noundef %0, i32 noundef %8, ptr noundef %2, ptr noundef %3, ptr noundef %4, ptr noundef %5, ptr noundef nonnull %7)
  %22 = getelementptr inbounds nuw i8, ptr %4, i64 64
  %23 = load ptr, ptr %22, align 8
  %24 = getelementptr inbounds nuw i8, ptr %23, i64 80
  %25 = load ptr, ptr %24, align 8
  %.not = icmp eq ptr %25, null
  br i1 %.not, label %cba_frame_disconnectme.exit, label %26

26:                                               ; preds = %proto_item_set_generated.exit
  %27 = load ptr, ptr %25, align 8
  %28 = getelementptr inbounds nuw i8, ptr %25, i64 8
  %29 = load ptr, ptr %28, align 8
  %.0.in28.i = getelementptr inbounds nuw i8, ptr %27, i64 8
  %.029.i = load ptr, ptr %.0.in28.i, align 8
  %.not30.i = icmp eq ptr %.029.i, null
  br i1 %.not30.i, label %cba_frame_disconnectme.exit, label %.lr.ph.i

.lr.ph.i:                                         ; preds = %26
  %30 = getelementptr inbounds nuw i8, ptr %2, i64 20
  br label %31

31:                                               ; preds = %cba_packet_in_range.exit.thread.i, %.lr.ph.i
  %.031.i = phi ptr [ %.029.i, %.lr.ph.i ], [ %.0.i, %cba_packet_in_range.exit.thread.i ]
  %32 = load ptr, ptr %.031.i, align 8
  %33 = getelementptr inbounds nuw i8, ptr %32, i64 8
  %34 = load ptr, ptr %33, align 8
  %35 = icmp eq ptr %34, %29
  br i1 %35, label %36, label %cba_packet_in_range.exit.thread.i

36:                                               ; preds = %31
  %37 = getelementptr inbounds nuw i8, ptr %32, i64 24
  %38 = load i32, ptr %37, align 8
  %39 = getelementptr inbounds nuw i8, ptr %32, i64 28
  %40 = load i32, ptr %39, align 4
  %41 = getelementptr inbounds nuw i8, ptr %32, i64 32
  %42 = load i32, ptr %41, align 8
  %43 = icmp eq i32 %38, 0
  %44 = load i32, ptr %30, align 4
  br i1 %43, label %45, label %.critedge.i.i

45:                                               ; preds = %36
  %46 = call ptr (ptr, ptr, ptr, ptr, ...) @expert_add_info_format(ptr noundef %2, ptr noundef null, ptr noundef nonnull @ei_cba_acco_connect, ptr noundef nonnull @.str.300, i32 noundef %44)
  br label %cba_packet_in_range.exit.thread.i

.critedge.i.i:                                    ; preds = %36
  %47 = icmp ult i32 %44, %38
  br i1 %47, label %cba_packet_in_range.exit.thread.i, label %48

48:                                               ; preds = %.critedge.i.i
  %.not.i.i = icmp ne i32 %40, 0
  %49 = icmp ugt i32 %44, %40
  %or.cond.i.i = and i1 %.not.i.i, %49
  br i1 %or.cond.i.i, label %cba_packet_in_range.exit.thread.i, label %cba_packet_in_range.exit.i

cba_packet_in_range.exit.i:                       ; preds = %48
  %.not16.i.i = icmp eq i32 %42, 0
  %50 = icmp ule i32 %44, %42
  %or.cond17.not.i.i = or i1 %.not16.i.i, %50
  br i1 %or.cond17.not.i.i, label %51, label %cba_packet_in_range.exit.thread.i

51:                                               ; preds = %cba_packet_in_range.exit.i
  call fastcc void @cba_frame_info(ptr noundef %0, ptr noundef %3, ptr noundef %32)
  %52 = load i32, ptr %41, align 8
  %53 = icmp eq i32 %52, 0
  %.pre.i = load i32, ptr %30, align 4
  br i1 %53, label %.thread.i, label %54

.thread.i:                                        ; preds = %51
  store i32 %.pre.i, ptr %41, align 8
  br label %cba_packet_in_range.exit.thread.i

54:                                               ; preds = %51
  %.not26.i = icmp eq i32 %52, %.pre.i
  br i1 %.not26.i, label %cba_packet_in_range.exit.thread.i, label %55

55:                                               ; preds = %54
  %56 = call ptr (ptr, ptr, ptr, ptr, ...) @expert_add_info_format(ptr noundef %2, ptr noundef %3, ptr noundef nonnull @ei_cba_acco_disconnect, ptr noundef nonnull @.str.341, i32 noundef %.pre.i, i32 noundef %52)
  br label %cba_packet_in_range.exit.thread.i

cba_packet_in_range.exit.thread.i:                ; preds = %55, %54, %.thread.i, %cba_packet_in_range.exit.i, %48, %.critedge.i.i, %45, %31
  %.0.in.i = getelementptr inbounds nuw i8, ptr %.031.i, i64 8
  %.0.i = load ptr, ptr %.0.in.i, align 8
  %.not.i26 = icmp eq ptr %.0.i, null
  br i1 %.not.i26, label %cba_frame_disconnectme.exit, label %31, !llvm.loop !52

cba_frame_disconnectme.exit:                      ; preds = %cba_packet_in_range.exit.thread.i, %26, %proto_item_set_generated.exit
  %57 = getelementptr inbounds nuw i8, ptr %2, i64 8
  %58 = load ptr, ptr %57, align 8
  %59 = load i32, ptr %7, align 4
  %60 = call ptr @val_to_str(i32 noundef %59, ptr noundef nonnull @dcom_hresult_vals, ptr noundef nonnull @.str.259)
  call void (ptr, i32, ptr, ...) @col_append_fstr(ptr noundef %58, i32 noundef 25, ptr noundef nonnull @.str.261, ptr noundef %60)
  call void @llvm.lifetime.end.p0(i64 4, ptr nonnull %7) #12
  ret i32 %21
}